target datalayout = "e-m:e-p270:32:32-p271:32:32-p272:64:64-i64:64-i128:128-f80:128-n8:16:32:64-S128"
target triple = "x86_64-pc-linux-gnu"

%struct.SResource = type { ptr, i8, i8, i32, i32, i32, i32, i32, ptr, %struct.UString }
%struct.UString = type { ptr, i32, i32 }
%"class.icu_77::UnicodeString" = type { %"class.icu_77::Replaceable", %"union.icu_77::UnicodeString::StackBufferOrFields" }
%"class.icu_77::Replaceable" = type { %"class.icu_77::UObject" }
%"class.icu_77::UObject" = type { ptr }
%"union.icu_77::UnicodeString::StackBufferOrFields" = type { %struct.anon.0, [32 x i8] }
%struct.anon.0 = type { i16, i32, i32, ptr }
%"class.icu_77::ConstChar16Ptr" = type { ptr }
%class.StringBaseResource = type { %struct.SResource, %"class.icu_77::UnicodeString" }
%struct.anon = type { i16, [27 x i16] }

@_ZL14gFormatVersion = internal global i32 3, align 4
@_ZTVN6icu_777UObjectE = available_externally unnamed_addr constant { [5 x ptr] } { [5 x ptr] [ptr null, ptr @_ZTIN6icu_777UObjectE, ptr @_ZN6icu_777UObjectD1Ev, ptr @_ZN6icu_777UObjectD0Ev, ptr @_ZNK6icu_777UObject17getDynamicClassIDEv] }, align 8

; Function Attrs: inlinehint mustprogress nounwind uwtable
define linkonce_odr dso_local noundef i32 @_ZNK6icu_7713UnicodeString14getShortLengthEv(ptr noundef nonnull align 8 dereferenceable(64) %0) #9 comdat align 2 {
  %2 = alloca ptr, align 8
  store ptr %0, ptr %2, align 8, !tbaa !74
  %3 = load ptr, ptr %2, align 8
  %4 = getelementptr inbounds nuw %"class.icu_77::UnicodeString", ptr %3, i32 0, i32 1
  %5 = getelementptr inbounds nuw %struct.anon.0, ptr %4, i32 0, i32 0
  %6 = load i16, ptr %5, align 8, !tbaa !22
  %7 = sext i16 %6 to i32
  %8 = ashr i32 %7, 5
  ret i32 %8
}

; Function Attrs: inlinehint mustprogress nounwind uwtable
define linkonce_odr dso_local noundef signext i8 @_ZNK6icu_7713UnicodeString14hasShortLengthEv(ptr noundef nonnull align 8 dereferenceable(64) %0) #9 comdat align 2 {
  %2 = alloca ptr, align 8
  store ptr %0, ptr %2, align 8, !tbaa !74
  %3 = load ptr, ptr %2, align 8
  %4 = getelementptr inbounds nuw %"class.icu_77::UnicodeString", ptr %3, i32 0, i32 1
  %5 = getelementptr inbounds nuw %struct.anon.0, ptr %4, i32 0, i32 0
  %6 = load i16, ptr %5, align 8, !tbaa !22
  %7 = sext i16 %6 to i32
  %8 = icmp sge i32 %7, 0
  %9 = zext i1 %8 to i8
  ret i8 %9
}

; Function Attrs: inlinehint mustprogress nounwind uwtable
define linkonce_odr dso_local void @_ZN6icu_777UObjectC2Ev(ptr noundef nonnull align 8 dereferenceable(8) %0) unnamed_addr #9 comdat align 2 {
  %2 = alloca ptr, align 8
  store ptr %0, ptr %2, align 8, !tbaa !243
  %3 = load ptr, ptr %2, align 8
  store ptr getelementptr inbounds inrange(-16, 24) ({ [5 x ptr] }, ptr @_ZTVN6icu_777UObjectE, i32 0, i32 0, i32 2), ptr %3, align 8, !tbaa !26
  ret void
}

; Function Attrs: inlinehint mustprogress uwtable
define linkonce_odr dso_local noundef i32 @_ZNK6icu_7713UnicodeString6lengthEv(ptr noundef nonnull align 8 dereferenceable(64) %0) #11 comdat align 2 {
  %2 = alloca ptr, align 8
  store ptr %0, ptr %2, align 8, !tbaa !74
  %3 = load ptr, ptr %2, align 8
  %4 = call noundef signext i8 @_ZNK6icu_7713UnicodeString14hasShortLengthEv(ptr noundef nonnull align 8 dereferenceable(64) %3)
  %5 = icmp ne i8 %4, 0
  br i1 %5, label %6, label %8

6:                                                ; preds = %1
  %7 = call noundef i32 @_ZNK6icu_7713UnicodeString14getShortLengthEv(ptr noundef nonnull align 8 dereferenceable(64) %3)
  br label %12

8:                                                ; preds = %1
  %9 = getelementptr inbounds nuw %"class.icu_77::UnicodeString", ptr %3, i32 0, i32 1
  %10 = getelementptr inbounds nuw %struct.anon.0, ptr %9, i32 0, i32 1
  %11 = load i32, ptr %10, align 4, !tbaa !22
  br label %12

12:                                               ; preds = %8, %6
  %13 = phi i32 [ %7, %6 ], [ %11, %8 ]
  ret i32 %13
}

; Function Attrs: inlinehint mustprogress nounwind uwtable
define linkonce_odr dso_local noundef ptr @_ZNK6icu_7714ConstChar16Ptr3getEv(ptr noundef nonnull align 8 dereferenceable(8) %0) #9 comdat align 2 {
  %2 = alloca ptr, align 8
  store ptr %0, ptr %2, align 8, !tbaa !76
  %3 = load ptr, ptr %2, align 8
  %4 = getelementptr inbounds nuw %"class.icu_77::ConstChar16Ptr", ptr %3, i32 0, i32 0
  %5 = load ptr, ptr %4, align 8, !tbaa !78
  ret ptr %5
}

; Function Attrs: inlinehint mustprogress nounwind uwtable
define linkonce_odr dso_local void @_ZN6icu_7711ReplaceableC2Ev(ptr noundef nonnull align 8 dereferenceable(8) %0) unnamed_addr #9 comdat align 2 {
  %2 = alloca ptr, align 8
  store ptr %0, ptr %2, align 8, !tbaa !241
  %3 = load ptr, ptr %2, align 8
  call void @_ZN6icu_777UObjectC2Ev(ptr noundef nonnull align 8 dereferenceable(8) %3) #3
  store ptr getelementptr inbounds inrange(-16, 88) ({ [13 x ptr] }, ptr @_ZTVN6icu_7711ReplaceableE, i32 0, i32 0, i32 2), ptr %3, align 8, !tbaa !26
  ret void
}

; Function Attrs: inlinehint mustprogress nounwind uwtable
define linkonce_odr dso_local noundef signext i8 @_ZNK6icu_7713UnicodeString7isBogusEv(ptr noundef nonnull align 8 dereferenceable(64) %0) #9 comdat align 2 {
  %2 = alloca ptr, align 8
  store ptr %0, ptr %2, align 8, !tbaa !74
  %3 = load ptr, ptr %2, align 8
  %4 = getelementptr inbounds nuw %"class.icu_77::UnicodeString", ptr %3, i32 0, i32 1
  %5 = getelementptr inbounds nuw %struct.anon.0, ptr %4, i32 0, i32 0
  %6 = load i16, ptr %5, align 8, !tbaa !22
  %7 = sext i16 %6 to i32
  %8 = and i32 %7, 1
  %9 = trunc i32 %8 to i8
  ret i8 %9
}

; Function Attrs: inlinehint mustprogress nounwind uwtable
define internal noundef signext i8 @_ZL9U_SUCCESS10UErrorCode(i32 noundef %0) #9 {
  %2 = alloca i32, align 4
  store i32 %0, ptr %2, align 4, !tbaa !45
  %3 = load i32, ptr %2, align 4, !tbaa !45
  %4 = icmp sle i32 %3, 0
  %5 = zext i1 %4 to i8
  ret i8 %5
}

; Function Attrs: inlinehint mustprogress nounwind uwtable
define linkonce_odr dso_local void @_ZN6icu_7714ConstChar16PtrD2Ev(ptr noundef nonnull align 8 dereferenceable(8) %0) unnamed_addr #9 comdat align 2 {
  %2 = alloca ptr, align 8
  store ptr %0, ptr %2, align 8, !tbaa !76
  %3 = load ptr, ptr %2, align 8
  %4 = getelementptr inbounds nuw %"class.icu_77::ConstChar16Ptr", ptr %3, i32 0, i32 0
  %5 = load ptr, ptr %4, align 8, !tbaa !78
  call void asm sideeffect "", "rm,~{memory},~{dirflag},~{fpsr},~{flags}"(ptr %5) #3, !srcloc !80
  ret void
}

; Function Attrs: inlinehint mustprogress uwtable
define linkonce_odr dso_local noundef nonnull align 8 dereferenceable(64) ptr @_ZN6icu_7713UnicodeString5setToEPKDsi(ptr noundef nonnull align 8 dereferenceable(64) %0, ptr noundef %1, i32 noundef %2) #11 comdat align 2 {
  %4 = alloca ptr, align 8
  %5 = alloca ptr, align 8
  %6 = alloca i32, align 4
  store ptr %0, ptr %4, align 8, !tbaa !74
  store ptr %1, ptr %5, align 8, !tbaa !73
  store i32 %2, ptr %6, align 4, !tbaa !23
  %7 = load ptr, ptr %4, align 8
  call void @_ZN6icu_7713UnicodeString7unBogusEv(ptr noundef nonnull align 8 dereferenceable(64) %7)
  %8 = call noundef i32 @_ZNK6icu_7713UnicodeString6lengthEv(ptr noundef nonnull align 8 dereferenceable(64) %7)
  %9 = load ptr, ptr %5, align 8, !tbaa !73
  %10 = load i32, ptr %6, align 4, !tbaa !23
  %11 = call noundef nonnull align 8 dereferenceable(64) ptr @_ZN6icu_7713UnicodeString9doReplaceEiiPKDsii(ptr noundef nonnull align 8 dereferenceable(64) %7, i32 noundef 0, i32 noundef %8, ptr noundef %9, i32 noundef 0, i32 noundef %10)
  ret ptr %11
}

; Function Attrs: inlinehint mustprogress uwtable
define linkonce_odr dso_local noundef ptr @_ZNK6icu_7714ConstChar16PtrcvPKDsEv(ptr noundef nonnull align 8 dereferenceable(8) %0) #11 comdat align 2 {
  %2 = alloca ptr, align 8
  store ptr %0, ptr %2, align 8, !tbaa !76
  %3 = load ptr, ptr %2, align 8
  %4 = call noundef ptr @_ZNK6icu_7714ConstChar16Ptr3getEv(ptr noundef nonnull align 8 dereferenceable(8) %3)
  ret ptr %4
}

; Function Attrs: inlinehint mustprogress nounwind uwtable
define linkonce_odr dso_local void @_ZN6icu_7714ConstChar16PtrC2EPKDs(ptr noundef nonnull align 8 dereferenceable(8) %0, ptr noundef %1) unnamed_addr #9 comdat align 2 {
  %3 = alloca ptr, align 8
  %4 = alloca ptr, align 8
  store ptr %0, ptr %3, align 8, !tbaa !76
  store ptr %1, ptr %4, align 8, !tbaa !73
  %5 = load ptr, ptr %3, align 8
  %6 = getelementptr inbounds nuw %"class.icu_77::ConstChar16Ptr", ptr %5, i32 0, i32 0
  %7 = load ptr, ptr %4, align 8, !tbaa !73
  store ptr %7, ptr %6, align 8, !tbaa !78
  ret void
}

; Function Attrs: inlinehint mustprogress uwtable
define linkonce_odr dso_local void @_ZN6icu_7713UnicodeStringC2Ev(ptr noundef nonnull align 8 dereferenceable(64) %0) unnamed_addr #11 comdat align 2 {
  %2 = alloca ptr, align 8
  store ptr %0, ptr %2, align 8, !tbaa !74
  %3 = load ptr, ptr %2, align 8
  call void @_ZN6icu_7711ReplaceableC2Ev(ptr noundef nonnull align 8 dereferenceable(8) %3)
  store ptr getelementptr inbounds inrange(-16, 88) ({ [13 x ptr] }, ptr @_ZTVN6icu_7713UnicodeStringE, i32 0, i32 0, i32 2), ptr %3, align 8, !tbaa !26
  %4 = getelementptr inbounds nuw %"class.icu_77::UnicodeString", ptr %3, i32 0, i32 1
  %5 = getelementptr inbounds nuw %struct.anon, ptr %4, i32 0, i32 0
  store i16 2, ptr %5, align 8, !tbaa !22
  ret void
}

; Function Attrs: mustprogress uwtable
define dso_local void @_ZN18StringBaseResourceC2EP7SRBRootPKcaPKDsiPK7UStringR10UErrorCode(ptr noundef nonnull align 8 dereferenceable(120) %0, ptr noundef %1, ptr noundef %2, i8 noundef signext %3, ptr noundef %4, i32 noundef %5, ptr noundef %6, ptr noundef nonnull align 4 dereferenceable(4) %7) unnamed_addr #5 align 2 personality ptr @__gxx_personality_v0 {
  %9 = alloca ptr, align 8
  %10 = alloca ptr, align 8
  %11 = alloca ptr, align 8
  %12 = alloca i8, align 1
  %13 = alloca ptr, align 8
  %14 = alloca i32, align 4
  %15 = alloca ptr, align 8
  %16 = alloca ptr, align 8
  %17 = alloca ptr, align 8
  %18 = alloca i32, align 4
  %19 = alloca %"class.icu_77::ConstChar16Ptr", align 8
  store ptr %0, ptr %9, align 8, !tbaa !71
  store ptr %1, ptr %10, align 8, !tbaa !39
  store ptr %2, ptr %11, align 8, !tbaa !41
  store i8 %3, ptr %12, align 1, !tbaa !22
  store ptr %4, ptr %13, align 8, !tbaa !73
  store i32 %5, ptr %14, align 4, !tbaa !23
  store ptr %6, ptr %15, align 8, !tbaa !42
  store ptr %7, ptr %16, align 8, !tbaa !44
  %20 = load ptr, ptr %9, align 8
  %21 = load ptr, ptr %10, align 8, !tbaa !39
  %22 = load ptr, ptr %11, align 8, !tbaa !41
  %23 = load i8, ptr %12, align 1, !tbaa !22
  %24 = load ptr, ptr %15, align 8, !tbaa !42
  %25 = load ptr, ptr %16, align 8, !tbaa !44
  call void @_ZN9SResourceC2EP7SRBRootPKcaPK7UStringR10UErrorCode(ptr noundef nonnull align 8 dereferenceable(56) %20, ptr noundef %21, ptr noundef %22, i8 noundef signext %23, ptr noundef %24, ptr noundef nonnull align 4 dereferenceable(4) %25)
  store ptr getelementptr inbounds inrange(-16, 64) ({ [10 x ptr] }, ptr @_ZTV18StringBaseResource, i32 0, i32 0, i32 2), ptr %20, align 8, !tbaa !26
  %26 = getelementptr inbounds nuw %class.StringBaseResource, ptr %20, i32 0, i32 1
  invoke void @_ZN6icu_7713UnicodeStringC2Ev(ptr noundef nonnull align 8 dereferenceable(64) %26)
          to label %27 unwind label %39

27:                                               ; preds = %8
  %28 = load i32, ptr %14, align 4, !tbaa !23
  %29 = icmp eq i32 %28, 0
  br i1 %29, label %30, label %43

30:                                               ; preds = %27
  %31 = load i32, ptr @_ZL14gFormatVersion, align 4, !tbaa !23
  %32 = icmp sgt i32 %31, 1
  br i1 %32, label %33, label %43

33:                                               ; preds = %30
  %34 = load i8, ptr %12, align 1, !tbaa !22
  %35 = sext i8 %34 to i32
  %36 = shl i32 %35, 28
  %37 = getelementptr inbounds nuw %struct.SResource, ptr %20, i32 0, i32 3
  store i32 %36, ptr %37, align 4, !tbaa !33
  %38 = getelementptr inbounds nuw %struct.SResource, ptr %20, i32 0, i32 2
  store i8 1, ptr %38, align 1, !tbaa !32
  br label %80

39:                                               ; preds = %8
  %40 = landingpad { ptr, i32 }
          cleanup
  %41 = extractvalue { ptr, i32 } %40, 0
  store ptr %41, ptr %17, align 8
  %42 = extractvalue { ptr, i32 } %40, 1
  store i32 %42, ptr %18, align 4
  br label %82

43:                                               ; preds = %30, %27
  %44 = getelementptr inbounds nuw %class.StringBaseResource, ptr %20, i32 0, i32 1
  call void @llvm.lifetime.start.p0(i64 8, ptr %19) #3
  %45 = load ptr, ptr %13, align 8, !tbaa !73
  invoke void @_ZN6icu_7714ConstChar16PtrC2EPKDs(ptr noundef nonnull align 8 dereferenceable(8) %19, ptr noundef %45)
          to label %46 unwind label %67

46:                                               ; preds = %43
  %47 = invoke noundef ptr @_ZNK6icu_7714ConstChar16PtrcvPKDsEv(ptr noundef nonnull align 8 dereferenceable(8) %19)
          to label %48 unwind label %71

48:                                               ; preds = %46
  %49 = load i32, ptr %14, align 4, !tbaa !23
  %50 = invoke noundef nonnull align 8 dereferenceable(64) ptr @_ZN6icu_7713UnicodeString5setToEPKDsi(ptr noundef nonnull align 8 dereferenceable(64) %44, ptr noundef %47, i32 noundef %49)
          to label %51 unwind label %71

51:                                               ; preds = %48
  call void @_ZN6icu_7714ConstChar16PtrD2Ev(ptr noundef nonnull align 8 dereferenceable(8) %19) #3
  call void @llvm.lifetime.end.p0(i64 8, ptr %19) #3
  %52 = getelementptr inbounds nuw %class.StringBaseResource, ptr %20, i32 0, i32 1
  %53 = invoke noundef ptr @_ZN6icu_7713UnicodeString19getTerminatedBufferEv(ptr noundef nonnull align 8 dereferenceable(64) %52)
          to label %54 unwind label %76

54:                                               ; preds = %51
  %55 = load ptr, ptr %16, align 8, !tbaa !44
  %56 = load i32, ptr %55, align 4, !tbaa !45
  %57 = invoke noundef signext i8 @_ZL9U_SUCCESS10UErrorCode(i32 noundef %56)
          to label %58 unwind label %76

58:                                               ; preds = %54
  %59 = icmp ne i8 %57, 0
  br i1 %59, label %60, label %80

60:                                               ; preds = %58
  %61 = getelementptr inbounds nuw %class.StringBaseResource, ptr %20, i32 0, i32 1
  %62 = invoke noundef signext i8 @_ZNK6icu_7713UnicodeString7isBogusEv(ptr noundef nonnull align 8 dereferenceable(64) %61)
          to label %63 unwind label %76

63:                                               ; preds = %60
  %64 = icmp ne i8 %62, 0
  br i1 %64, label %65, label %80

65:                                               ; preds = %63
  %66 = load ptr, ptr %16, align 8, !tbaa !44
  store i32 7, ptr %66, align 4, !tbaa !45
  br label %80

67:                                               ; preds = %43
  %68 = landingpad { ptr, i32 }
          cleanup
  %69 = extractvalue { ptr, i32 } %68, 0
  store ptr %69, ptr %17, align 8
  %70 = extractvalue { ptr, i32 } %68, 1
  store i32 %70, ptr %18, align 4
  br label %75

71:                                               ; preds = %48, %46
  %72 = landingpad { ptr, i32 }
          cleanup
  %73 = extractvalue { ptr, i32 } %72, 0
  store ptr %73, ptr %17, align 8
  %74 = extractvalue { ptr, i32 } %72, 1
  store i32 %74, ptr %18, align 4
  call void @_ZN6icu_7714ConstChar16PtrD2Ev(ptr noundef nonnull align 8 dereferenceable(8) %19) #3
  br label %75

75:                                               ; preds = %71, %67
  call void @llvm.lifetime.end.p0(i64 8, ptr %19) #3
  br label %81

76:                                               ; preds = %60, %54, %51
  %77 = landingpad { ptr, i32 }
          cleanup
  %78 = extractvalue { ptr, i32 } %77, 0
  store ptr %78, ptr %17, align 8
  %79 = extractvalue { ptr, i32 } %77, 1
  store i32 %79, ptr %18, align 4
  br label %81

80:                                               ; preds = %33, %65, %63, %58
  ret void

81:                                               ; preds = %76, %75
  call void @_ZN6icu_7713UnicodeStringD1Ev(ptr noundef nonnull align 8 dereferenceable(64) %26) #3
  br label %82

82:                                               ; preds = %81, %39
  call void @_ZN9SResourceD2Ev(ptr noundef nonnull align 8 dereferenceable(56) %20) #3
  br label %83

83:                                               ; preds = %82
  %84 = load ptr, ptr %17, align 8
  %85 = load i32, ptr %18, align 4
  %86 = insertvalue { ptr, i32 } poison, ptr %84, 0
  %87 = insertvalue { ptr, i32 } %86, i32 %85, 1
  resume { ptr, i32 } %87
}