; Function Attrs: mustprogress uwtable
define dso_local void @_ZN18StringBaseResourceC2EP7SRBRootPKcaPKDsiPK7UStringR10UErrorCode(ptr noundef nonnull align 8 dereferenceable(120) initializes((0, 10), (12, 40)) %0, ptr noundef %1, ptr noundef %2, i8 noundef signext %3, ptr noundef %4, i32 noundef %5, ptr noundef %6, ptr noundef nonnull align 4 dereferenceable(4) %7) unnamed_addr #7 align 2 personality ptr @__gxx_personality_v0 {
  tail call void @_ZN9SResourceC2EP7SRBRootPKcaPK7UStringR10UErrorCode(ptr noundef nonnull align 8 dereferenceable(56) %0, ptr noundef %1, ptr noundef %2, i8 noundef signext %3, ptr noundef %6, ptr noundef nonnull align 4 dereferenceable(4) %7)
  store ptr getelementptr inbounds nuw inrange(-16, 64) (i8, ptr @_ZTV18StringBaseResource, i64 16), ptr %0, align 8, !tbaa !9
  %9 = getelementptr inbounds nuw i8, ptr %0, i64 56
  store ptr getelementptr inbounds nuw inrange(-16, 88) (i8, ptr @_ZTVN6icu_7713UnicodeStringE, i64 16), ptr %9, align 8, !tbaa !9
  %10 = getelementptr inbounds nuw i8, ptr %0, i64 64
  store i16 2, ptr %10, align 8, !tbaa !4
  %11 = icmp eq i32 %5, 0
  %12 = load i32, ptr @_ZL14gFormatVersion, align 4
  %13 = icmp sgt i32 %12, 1
  %or.cond = select i1 %11, i1 %13, i1 false
  br i1 %or.cond, label %14, label %19

14:                                               ; preds = %8
  %15 = zext i8 %3 to i32
  %16 = shl i32 %15, 28
  %17 = getelementptr inbounds nuw i8, ptr %0, i64 12
  store i32 %16, ptr %17, align 4, !tbaa !20
  %18 = getelementptr inbounds nuw i8, ptr %0, i64 9
  store i8 1, ptr %18, align 1, !tbaa !17
  br label %40

19:                                               ; preds = %8
  invoke void @_ZN6icu_7713UnicodeString7unBogusEv(ptr noundef nonnull align 8 dereferenceable(64) %9)
          to label %.noexc unwind label %36

.noexc:                                           ; preds = %19
  %20 = load i16, ptr %10, align 8, !tbaa !4
  %21 = icmp slt i16 %20, 0
  %22 = ashr i16 %20, 5
  %23 = sext i16 %22 to i32
  %24 = getelementptr inbounds nuw i8, ptr %0, i64 68
  %25 = load i32, ptr %24, align 4
  %26 = select i1 %21, i32 %25, i32 %23
  %27 = invoke noundef nonnull align 8 dereferenceable(64) ptr @_ZN6icu_7713UnicodeString9doReplaceEiiPKDsii(ptr noundef nonnull align 8 dereferenceable(64) %9, i32 noundef 0, i32 noundef %26, ptr noundef %4, i32 noundef 0, i32 noundef %5)
          to label %_ZN6icu_7713UnicodeString5setToEPKDsi.exit unwind label %36

_ZN6icu_7713UnicodeString5setToEPKDsi.exit:       ; preds = %.noexc
  tail call void asm sideeffect "", "rm,~{memory},~{dirflag},~{fpsr},~{flags}"(ptr %4) #34, !srcloc !48
  %28 = invoke noundef ptr @_ZN6icu_7713UnicodeString19getTerminatedBufferEv(ptr noundef nonnull align 8 dereferenceable(64) %9)
          to label %29 unwind label %38

29:                                               ; preds = %_ZN6icu_7713UnicodeString5setToEPKDsi.exit
  %30 = load i32, ptr %7, align 4, !tbaa !22
  %31 = icmp sgt i32 %30, 0
  br i1 %31, label %40, label %32

32:                                               ; preds = %29
  %33 = load i16, ptr %10, align 8, !tbaa !4
  %34 = and i16 %33, 1
  %.not18 = icmp eq i16 %34, 0
  br i1 %.not18, label %40, label %35

35:                                               ; preds = %32
  store i32 7, ptr %7, align 4, !tbaa !22
  br label %40

36:                                               ; preds = %.noexc, %19
  %37 = landingpad { ptr, i32 }
          cleanup
  tail call void asm sideeffect "", "rm,~{memory},~{dirflag},~{fpsr},~{flags}"(ptr %4) #34, !srcloc !48
  br label %41

38:                                               ; preds = %_ZN6icu_7713UnicodeString5setToEPKDsi.exit
  %39 = landingpad { ptr, i32 }
          cleanup
  br label %41

40:                                               ; preds = %35, %32, %29, %14
  ret void

41:                                               ; preds = %38, %36
  %.pn = phi { ptr, i32 } [ %39, %38 ], [ %37, %36 ]
  tail call void @_ZN6icu_7713UnicodeStringD1Ev(ptr noundef nonnull align 8 dereferenceable(64) %9) #34
  tail call void @_ZN9SResourceD2Ev(ptr noundef nonnull align 8 dereferenceable(56) %0) #34
  resume { ptr, i32 } %.pn
}